; Function Attrs: mustprogress nofree norecurse nosync nounwind willreturn memory(argmem: read) uwtable
define { ptr, i64 } @_ZNK7rocksdb20SimpleSecondaryIndex20GetPrimaryColumnNameEv(ptr noundef nonnull readonly align 8 captures(none) dereferenceable(56) %0) unnamed_addr #2 align 2 personality ptr @__gxx_personality_v0 {
  %2 = getelementptr inbounds nuw i8, ptr %0, i64 8
  %3 = load ptr, ptr %2, align 8, !tbaa !12
  %4 = getelementptr inbounds nuw i8, ptr %0, i64 16
  %5 = load i64, ptr %4, align 8, !tbaa !15
  %.fca.0.insert = insertvalue { ptr, i64 } poison, ptr %3, 0
  %.fca.1.insert = insertvalue { ptr, i64 } %.fca.0.insert, i64 %5, 1
  ret { ptr, i64 } %.fca.1.insert
}